; Function Attrs: nounwind memory(readwrite, argmem: read) uwtable
define internal fastcc range(i32 0, 2) i32 @arkode_butcher_order6e(ptr noundef readonly captures(address_is_null) %0, ptr noundef readonly captures(address_is_null) %1, ptr noundef readonly captures(address_is_null) %2, ptr noundef readonly captures(address_is_null) %3, ptr noundef readonly captures(address_is_null) %4, ptr noundef readonly captures(address_is_null) %5, i32 noundef %6) unnamed_addr #10 {
  %8 = sext i32 %6 to i64
  %9 = tail call noalias ptr @calloc(i64 noundef %8, i64 noundef 8) #16
  %10 = tail call noalias ptr @calloc(i64 noundef %8, i64 noundef 8) #16
  %11 = tail call noalias ptr @calloc(i64 noundef %8, i64 noundef 8) #16
  %12 = icmp eq ptr %1, null
  %13 = icmp eq ptr %2, null
  %or.cond.i = or i1 %12, %13
  %14 = icmp eq ptr %9, null
  %or.cond3.i = or i1 %or.cond.i, %14
  %15 = icmp slt i32 %6, 1
  %or.cond5.i = or i1 %15, %or.cond3.i
  br i1 %or.cond5.i, label %arkode_butcher_vv.exit, label %.preheader.preheader.i

.preheader.preheader.i:                           ; preds = %7
  %wide.trip.count.i = zext nneg i32 %6 to i64
  br label %.preheader.i

.preheader.i:                                     ; preds = %.preheader.i, %.preheader.preheader.i
  %indvars.iv.i = phi i64 [ 0, %.preheader.preheader.i ], [ %indvars.iv.next.i, %.preheader.i ]
  %16 = getelementptr inbounds nuw double, ptr %1, i64 %indvars.iv.i
  %17 = load double, ptr %16, align 8, !tbaa !18
  %18 = getelementptr inbounds nuw double, ptr %2, i64 %indvars.iv.i
  %19 = load double, ptr %18, align 8, !tbaa !18
  %20 = fmul double %17, %19
  %21 = getelementptr inbounds nuw double, ptr %9, i64 %indvars.iv.i
  store double %20, ptr %21, align 8, !tbaa !18
  %indvars.iv.next.i = add nuw nsw i64 %indvars.iv.i, 1
  %exitcond.not.i = icmp eq i64 %indvars.iv.next.i, %wide.trip.count.i
  br i1 %exitcond.not.i, label %22, label %.preheader.i

arkode_butcher_vv.exit:                           ; preds = %7
  tail call void @free(ptr noundef %9) #17
  tail call void @free(ptr noundef %10) #17
  tail call void @free(ptr noundef %11) #17
  br label %arkode_butcher_dot.exit

22:                                               ; preds = %.preheader.i
  %23 = icmp eq ptr %0, null
  %24 = icmp eq ptr %10, null
  %or.cond3.i42 = or i1 %23, %24
  br i1 %or.cond3.i42, label %arkode_butcher_vv.exit51, label %.preheader.i46

.preheader.i46:                                   ; preds = %22, %.preheader.i46
  %indvars.iv.i47 = phi i64 [ %indvars.iv.next.i48, %.preheader.i46 ], [ 0, %22 ]
  %25 = getelementptr inbounds nuw double, ptr %0, i64 %indvars.iv.i47
  %26 = load double, ptr %25, align 8, !tbaa !18
  %27 = getelementptr inbounds nuw double, ptr %9, i64 %indvars.iv.i47
  %28 = load double, ptr %27, align 8, !tbaa !18
  %29 = fmul double %26, %28
  %30 = getelementptr inbounds nuw double, ptr %10, i64 %indvars.iv.i47
  store double %29, ptr %30, align 8, !tbaa !18
  %indvars.iv.next.i48 = add nuw nsw i64 %indvars.iv.i47, 1
  %exitcond.not.i49 = icmp eq i64 %indvars.iv.next.i48, %wide.trip.count.i
  br i1 %exitcond.not.i49, label %31, label %.preheader.i46

arkode_butcher_vv.exit51:                         ; preds = %22
  tail call void @free(ptr noundef nonnull %9) #17
  tail call void @free(ptr noundef %10) #17
  tail call void @free(ptr noundef %11) #17
  br label %arkode_butcher_dot.exit

31:                                               ; preds = %.preheader.i46
  %32 = icmp eq ptr %4, null
  %33 = icmp eq ptr %5, null
  %or.cond.i52 = or i1 %32, %33
  br i1 %or.cond.i52, label %arkode_butcher_mv.exit, label %.preheader.us.preheader.i

.preheader.us.preheader.i:                        ; preds = %31
  %34 = shl nuw nsw i64 %wide.trip.count.i, 3
  tail call void @llvm.memset.p0.i64(ptr nonnull align 8 %9, i8 0, i64 %34, i1 false), !tbaa !18
  br label %.preheader.us.i

.preheader.us.i:                                  ; preds = %._crit_edge.us.i, %.preheader.us.preheader.i
  %indvars.iv40.i = phi i64 [ 0, %.preheader.us.preheader.i ], [ %indvars.iv.next41.i, %._crit_edge.us.i ]
  %35 = getelementptr inbounds nuw ptr, ptr %4, i64 %indvars.iv40.i
  %36 = load ptr, ptr %35, align 8, !tbaa !12
  %37 = getelementptr inbounds nuw double, ptr %9, i64 %indvars.iv40.i
  %.promoted.us.i = load double, ptr %37, align 8, !tbaa !18
  br label %38

38:                                               ; preds = %38, %.preheader.us.i
  %indvars.iv.i55 = phi i64 [ 0, %.preheader.us.i ], [ %indvars.iv.next.i56, %38 ]
  %39 = phi double [ %.promoted.us.i, %.preheader.us.i ], [ %44, %38 ]
  %40 = getelementptr inbounds nuw double, ptr %36, i64 %indvars.iv.i55
  %41 = load double, ptr %40, align 8, !tbaa !18
  %42 = getelementptr inbounds nuw double, ptr %5, i64 %indvars.iv.i55
  %43 = load double, ptr %42, align 8, !tbaa !18
  %44 = tail call double @llvm.fmuladd.f64(double %41, double %43, double %39)
  %indvars.iv.next.i56 = add nuw nsw i64 %indvars.iv.i55, 1
  %exitcond.not.i57 = icmp eq i64 %indvars.iv.next.i56, %wide.trip.count.i
  br i1 %exitcond.not.i57, label %._crit_edge.us.i, label %38

._crit_edge.us.i:                                 ; preds = %38
  store double %44, ptr %37, align 8, !tbaa !18
  %indvars.iv.next41.i = add nuw nsw i64 %indvars.iv40.i, 1
  %exitcond44.not.i = icmp eq i64 %indvars.iv.next41.i, %wide.trip.count.i
  br i1 %exitcond44.not.i, label %45, label %.preheader.us.i

arkode_butcher_mv.exit:                           ; preds = %31
  tail call void @free(ptr noundef nonnull %9) #17
  tail call void @free(ptr noundef nonnull %10) #17
  tail call void @free(ptr noundef %11) #17
  br label %arkode_butcher_dot.exit

45:                                               ; preds = %._crit_edge.us.i
  %46 = icmp eq ptr %3, null
  %47 = icmp eq ptr %11, null
  %or.cond3.i59 = or i1 %46, %47
  br i1 %or.cond3.i59, label %arkode_butcher_mv.exit72, label %.preheader.us.i62

.preheader.us.i62:                                ; preds = %45, %._crit_edge.us.i68
  %indvars.iv40.i63 = phi i64 [ %indvars.iv.next41.i69, %._crit_edge.us.i68 ], [ 0, %45 ]
  %48 = getelementptr inbounds nuw ptr, ptr %3, i64 %indvars.iv40.i63
  %49 = load ptr, ptr %48, align 8, !tbaa !12
  %50 = getelementptr inbounds nuw double, ptr %11, i64 %indvars.iv40.i63
  %.promoted.us.i64 = load double, ptr %50, align 8, !tbaa !18
  br label %51

51:                                               ; preds = %51, %.preheader.us.i62
  %indvars.iv.i65 = phi i64 [ 0, %.preheader.us.i62 ], [ %indvars.iv.next.i66, %51 ]
  %52 = phi double [ %.promoted.us.i64, %.preheader.us.i62 ], [ %57, %51 ]
  %53 = getelementptr inbounds nuw double, ptr %49, i64 %indvars.iv.i65
  %54 = load double, ptr %53, align 8, !tbaa !18
  %55 = getelementptr inbounds nuw double, ptr %9, i64 %indvars.iv.i65
  %56 = load double, ptr %55, align 8, !tbaa !18
  %57 = tail call double @llvm.fmuladd.f64(double %54, double %56, double %52)
  %indvars.iv.next.i66 = add nuw nsw i64 %indvars.iv.i65, 1
  %exitcond.not.i67 = icmp eq i64 %indvars.iv.next.i66, %wide.trip.count.i
  br i1 %exitcond.not.i67, label %._crit_edge.us.i68, label %51

._crit_edge.us.i68:                               ; preds = %51
  store double %57, ptr %50, align 8, !tbaa !18
  %indvars.iv.next41.i69 = add nuw nsw i64 %indvars.iv40.i63, 1
  %exitcond44.not.i70 = icmp eq i64 %indvars.iv.next41.i69, %wide.trip.count.i
  br i1 %exitcond44.not.i70, label %.preheader, label %.preheader.us.i62

arkode_butcher_mv.exit72:                         ; preds = %45
  tail call void @free(ptr noundef nonnull %9) #17
  tail call void @free(ptr noundef %10) #17
  tail call void @free(ptr noundef %11) #17
  br label %arkode_butcher_dot.exit

.preheader:                                       ; preds = %._crit_edge.us.i68, %.preheader
  %indvars.iv.i76 = phi i64 [ %indvars.iv.next.i77, %.preheader ], [ 0, %._crit_edge.us.i68 ]
  %58 = phi double [ %63, %.preheader ], [ 0.000000e+00, %._crit_edge.us.i68 ]
  %59 = getelementptr inbounds nuw double, ptr %10, i64 %indvars.iv.i76
  %60 = load double, ptr %59, align 8, !tbaa !18
  %61 = getelementptr inbounds nuw double, ptr %11, i64 %indvars.iv.i76
  %62 = load double, ptr %61, align 8, !tbaa !18
  %63 = tail call double @llvm.fmuladd.f64(double %60, double %62, double %58)
  %indvars.iv.next.i77 = add nuw nsw i64 %indvars.iv.i76, 1
  %exitcond.not.i78 = icmp eq i64 %indvars.iv.next.i77, %wide.trip.count.i
  br i1 %exitcond.not.i78, label %64, label %.preheader

64:                                               ; preds = %.preheader
  tail call void @free(ptr noundef %9) #17
  tail call void @free(ptr noundef nonnull %10) #17
  tail call void @free(ptr noundef nonnull %11) #17
  %65 = fadd double %63, 0xBF9C71C71C71C71C
  %66 = tail call double @llvm.fabs.f64(double %65)
  %67 = fcmp ule double %66, 0x3E50000000000000
  %68 = zext i1 %67 to i32
  br label %arkode_butcher_dot.exit

arkode_butcher_dot.exit:                          ; preds = %64, %arkode_butcher_mv.exit72, %arkode_butcher_mv.exit, %arkode_butcher_vv.exit51, %arkode_butcher_vv.exit
  %.0 = phi i32 [ 0, %arkode_butcher_vv.exit ], [ 0, %arkode_butcher_vv.exit51 ], [ 0, %arkode_butcher_mv.exit ], [ 0, %arkode_butcher_mv.exit72 ], [ %68, %64 ]
  ret i32 %.0
}